; Function Attrs: mustprogress nofree norecurse nounwind willreturn memory(readwrite, inaccessiblemem: none) uwtable
define void @_ZN5boost9iostreams20file_descriptor_sinkC2ERKS1_(ptr nocapture noundef nonnull writeonly align 8 dereferenceable(16) %0, ptr nocapture noundef nonnull readonly align 8 dereferenceable(16) %1) unnamed_addr #17 align 2 personality ptr @__gxx_personality_v0 {
  %3 = load ptr, ptr %1, align 8, !tbaa !19
  store ptr %3, ptr %0, align 8, !tbaa !19
  %4 = getelementptr inbounds nuw i8, ptr %0, i64 8
  %5 = getelementptr inbounds nuw i8, ptr %1, i64 8
  %6 = load ptr, ptr %5, align 8, !tbaa !22
  store ptr %6, ptr %4, align 8, !tbaa !22
  %.not.i.i.i = icmp eq ptr %6, null
  br i1 %.not.i.i.i, label %_ZN5boost9iostreams15file_descriptorC2ERKS1_.exit, label %7

7:                                                ; preds = %2
  %8 = getelementptr inbounds nuw i8, ptr %6, i64 8
  %9 = atomicrmw add ptr %8, i32 1 monotonic, align 4
  br label %_ZN5boost9iostreams15file_descriptorC2ERKS1_.exit

_ZN5boost9iostreams15file_descriptorC2ERKS1_.exit: ; preds = %2, %7
  ret void
}